; Function Attrs: null_pointer_is_valid sspstrong uwtable
define internal fastcc void @add_priority(ptr noundef nonnull %0, i32 noundef %1, ptr noundef %2, i32 noundef %3) unnamed_addr #0 {
  %5 = tail call zeroext i8 @tvb_get_uint8(ptr noundef %2, i32 noundef %3)
  %6 = icmp eq i8 %5, -1
  br i1 %6, label %7, label %9

7:                                                ; preds = %4
  %8 = tail call ptr (ptr, i32, ptr, i32, i32, i32, ptr, ...) @proto_tree_add_uint_format_value(ptr noundef nonnull %0, i32 noundef %1, ptr noundef %2, i32 noundef %3, i32 noundef 1, i32 noundef 255, ptr noundef nonnull @.str.523)
  br label %12

9:                                                ; preds = %4
  %10 = zext i8 %5 to i32
  %11 = tail call ptr @proto_tree_add_uint(ptr noundef nonnull %0, i32 noundef %1, ptr noundef %2, i32 noundef %3, i32 noundef 1, i32 noundef %10)
  br label %12

12:                                               ; preds = %9, %7
  ret void
}